target datalayout = "e-m:e-p270:32:32-p271:32:32-p272:64:64-i64:64-i128:128-f80:128-n8:16:32:64-S128"
target triple = "x86_64-pc-linux-gnu"

%struct.UCMStates = type { [128 x [256 x i32]], [128 x i32], [128 x i32], i32, i32, i32, i32, i8, i8 }

@stderr = external global ptr, align 8
@.str.46 = private unnamed_addr constant [43 x i8] c"ucm error: there is no state information!\0A\00", align 1
@.str.47 = private unnamed_addr constant [48 x i8] c"ucm error: byte sequence ends in illegal state\0A\00", align 1
@.str.48 = private unnamed_addr constant [52 x i8] c"ucm error: byte sequence ends in state-change-only\0A\00", align 1
@.str.49 = private unnamed_addr constant [71 x i8] c"ucm error: byte sequence reached reserved action code, entry: 0x%02lx\0A\00", align 1
@.str.50 = private unnamed_addr constant [64 x i8] c"ucm error: byte sequence too short, ends in non-final state %u\0A\00", align 1
@.str.51 = private unnamed_addr constant [93 x i8] c"ucm error: SI/SO (like EBCDIC-stateful) result with %d characters does not contain all DBCS\0A\00", align 1

; Function Attrs: mustprogress nounwind uwtable
define i32 @ucm_countChars(ptr noundef %0, ptr noundef %1, i32 noundef %2) #6 {
  %4 = alloca i32, align 4
  %5 = alloca ptr, align 8
  %6 = alloca ptr, align 8
  %7 = alloca i32, align 4
  %8 = alloca i32, align 4
  %9 = alloca i32, align 4
  %10 = alloca i32, align 4
  %11 = alloca i32, align 4
  %12 = alloca i8, align 1
  %13 = alloca i32, align 4
  store ptr %0, ptr %5, align 8, !tbaa !3
  store ptr %1, ptr %6, align 8, !tbaa !8
  store i32 %2, ptr %7, align 4, !tbaa !17
  call void @llvm.lifetime.start.p0(i64 4, ptr %8) #10
  call void @llvm.lifetime.start.p0(i64 4, ptr %9) #10
  call void @llvm.lifetime.start.p0(i64 4, ptr %10) #10
  call void @llvm.lifetime.start.p0(i64 4, ptr %11) #10
  call void @llvm.lifetime.start.p0(i64 1, ptr %12) #10
  store i32 0, ptr %8, align 4, !tbaa !17
  store i32 0, ptr %11, align 4, !tbaa !17
  store i8 0, ptr %12, align 1, !tbaa !20
  %14 = load ptr, ptr %5, align 8, !tbaa !3
  %15 = getelementptr inbounds nuw %struct.UCMStates, ptr %14, i32 0, i32 3
  %16 = load i32, ptr %15, align 4, !tbaa !10
  %17 = icmp eq i32 %16, 0
  br i1 %17, label %18, label %21

18:                                               ; preds = %3
  %19 = load ptr, ptr @stderr, align 8, !tbaa !13
  %20 = call i32 (ptr, ptr, ...) @fprintf(ptr noundef %19, ptr noundef @.str.46) #10
  store i32 -1, ptr %4, align 4
  store i32 1, ptr %13, align 4
  br label %115

21:                                               ; preds = %3
  %22 = load i32, ptr %7, align 4, !tbaa !17
  %23 = icmp eq i32 %22, 2
  br i1 %23, label %24, label %31

24:                                               ; preds = %21
  %25 = load ptr, ptr %5, align 8, !tbaa !3
  %26 = getelementptr inbounds nuw %struct.UCMStates, ptr %25, i32 0, i32 8
  %27 = load i8, ptr %26, align 1, !tbaa !33
  %28 = sext i8 %27 to i32
  %29 = icmp eq i32 %28, 12
  br i1 %29, label %30, label %31

30:                                               ; preds = %24
  store i8 1, ptr %12, align 1, !tbaa !20
  br label %31

31:                                               ; preds = %30, %24, %21
  store i32 0, ptr %9, align 4, !tbaa !17
  br label %32

32:                                               ; preds = %84, %31
  %33 = load i32, ptr %9, align 4, !tbaa !17
  %34 = load i32, ptr %7, align 4, !tbaa !17
  %35 = icmp slt i32 %33, %34
  br i1 %35, label %36, label %87

36:                                               ; preds = %32
  %37 = load ptr, ptr %5, align 8, !tbaa !3
  %38 = getelementptr inbounds nuw %struct.UCMStates, ptr %37, i32 0, i32 0
  %39 = load i8, ptr %12, align 1, !tbaa !20
  %40 = zext i8 %39 to i64
  %41 = getelementptr inbounds nuw [128 x [256 x i32]], ptr %38, i64 0, i64 %40
  %42 = load ptr, ptr %6, align 8, !tbaa !8
  %43 = load i32, ptr %9, align 4, !tbaa !17
  %44 = sext i32 %43 to i64
  %45 = getelementptr inbounds i8, ptr %42, i64 %44
  %46 = load i8, ptr %45, align 1, !tbaa !20
  %47 = zext i8 %46 to i64
  %48 = getelementptr inbounds nuw [256 x i32], ptr %41, i64 0, i64 %47
  %49 = load i32, ptr %48, align 4, !tbaa !17
  store i32 %49, ptr %10, align 4, !tbaa !17
  %50 = load i32, ptr %10, align 4, !tbaa !17
  %51 = icmp sge i32 %50, 0
  br i1 %51, label %52, label %60

52:                                               ; preds = %36
  %53 = load i32, ptr %10, align 4, !tbaa !17
  %54 = lshr i32 %53, 24
  %55 = trunc i32 %54 to i8
  store i8 %55, ptr %12, align 1, !tbaa !20
  %56 = load i32, ptr %10, align 4, !tbaa !17
  %57 = and i32 %56, 16777215
  %58 = load i32, ptr %8, align 4, !tbaa !17
  %59 = add i32 %58, %57
  store i32 %59, ptr %8, align 4, !tbaa !17
  br label %83

60:                                               ; preds = %36
  %61 = load i32, ptr %10, align 4, !tbaa !17
  %62 = lshr i32 %61, 20
  %63 = and i32 %62, 15
  switch i32 %63, label %77 [
    i32 7, label %64
    i32 8, label %67
    i32 6, label %70
    i32 2, label %70
    i32 0, label %70
    i32 3, label %70
    i32 1, label %70
    i32 4, label %70
    i32 5, label %70
  ]

64:                                               ; preds = %60
  %65 = load ptr, ptr @stderr, align 8, !tbaa !13
  %66 = call i32 (ptr, ptr, ...) @fprintf(ptr noundef %65, ptr noundef @.str.47) #10
  store i32 -1, ptr %4, align 4
  store i32 1, ptr %13, align 4
  br label %115

67:                                               ; preds = %60
  %68 = load ptr, ptr @stderr, align 8, !tbaa !13
  %69 = call i32 (ptr, ptr, ...) @fprintf(ptr noundef %68, ptr noundef @.str.48) #10
  store i32 -1, ptr %4, align 4
  store i32 1, ptr %13, align 4
  br label %115

70:                                               ; preds = %60, %60, %60, %60, %60, %60, %60
  %71 = load i32, ptr %11, align 4, !tbaa !17
  %72 = add nsw i32 %71, 1
  store i32 %72, ptr %11, align 4, !tbaa !17
  %73 = load i32, ptr %10, align 4, !tbaa !17
  %74 = lshr i32 %73, 24
  %75 = and i32 %74, 127
  %76 = trunc i32 %75 to i8
  store i8 %76, ptr %12, align 1, !tbaa !20
  store i32 0, ptr %8, align 4, !tbaa !17
  br label %82

77:                                               ; preds = %60
  %78 = load ptr, ptr @stderr, align 8, !tbaa !13
  %79 = load i32, ptr %10, align 4, !tbaa !17
  %80 = sext i32 %79 to i64
  %81 = call i32 (ptr, ptr, ...) @fprintf(ptr noundef %78, ptr noundef @.str.49, i64 noundef %80) #10
  store i32 -1, ptr %4, align 4
  store i32 1, ptr %13, align 4
  br label %115

82:                                               ; preds = %70
  br label %83

83:                                               ; preds = %82, %52
  br label %84

84:                                               ; preds = %83
  %85 = load i32, ptr %9, align 4, !tbaa !17
  %86 = add nsw i32 %85, 1
  store i32 %86, ptr %9, align 4, !tbaa !17
  br label %32, !llvm.loop !74

87:                                               ; preds = %32
  %88 = load i32, ptr %8, align 4, !tbaa !17
  %89 = icmp ne i32 %88, 0
  br i1 %89, label %90, label %95

90:                                               ; preds = %87
  %91 = load ptr, ptr @stderr, align 8, !tbaa !13
  %92 = load i8, ptr %12, align 1, !tbaa !20
  %93 = zext i8 %92 to i32
  %94 = call i32 (ptr, ptr, ...) @fprintf(ptr noundef %91, ptr noundef @.str.50, i32 noundef %93) #10
  store i32 -1, ptr %4, align 4
  store i32 1, ptr %13, align 4
  br label %115

95:                                               ; preds = %87
  %96 = load i32, ptr %11, align 4, !tbaa !17
  %97 = icmp sgt i32 %96, 1
  br i1 %97, label %98, label %113

98:                                               ; preds = %95
  %99 = load ptr, ptr %5, align 8, !tbaa !3
  %100 = getelementptr inbounds nuw %struct.UCMStates, ptr %99, i32 0, i32 8
  %101 = load i8, ptr %100, align 1, !tbaa !33
  %102 = sext i8 %101 to i32
  %103 = icmp eq i32 %102, 12
  br i1 %103, label %104, label %113

104:                                              ; preds = %98
  %105 = load i32, ptr %7, align 4, !tbaa !17
  %106 = load i32, ptr %11, align 4, !tbaa !17
  %107 = mul nsw i32 2, %106
  %108 = icmp ne i32 %105, %107
  br i1 %108, label %109, label %113

109:                                              ; preds = %104
  %110 = load ptr, ptr @stderr, align 8, !tbaa !13
  %111 = load i32, ptr %11, align 4, !tbaa !17
  %112 = call i32 (ptr, ptr, ...) @fprintf(ptr noundef %110, ptr noundef @.str.51, i32 noundef %111) #10
  store i32 -1, ptr %4, align 4
  store i32 1, ptr %13, align 4
  br label %115

113:                                              ; preds = %104, %98, %95
  %114 = load i32, ptr %11, align 4, !tbaa !17
  store i32 %114, ptr %4, align 4
  store i32 1, ptr %13, align 4
  br label %115

115:                                              ; preds = %113, %109, %90, %77, %67, %64, %18
  call void @llvm.lifetime.end.p0(i64 1, ptr %12) #10
  call void @llvm.lifetime.end.p0(i64 4, ptr %11) #10
  call void @llvm.lifetime.end.p0(i64 4, ptr %10) #10
  call void @llvm.lifetime.end.p0(i64 4, ptr %9) #10
  call void @llvm.lifetime.end.p0(i64 4, ptr %8) #10
  %116 = load i32, ptr %4, align 4
  ret i32 %116
}