; Function Attrs: mustprogress nofree nounwind uwtable
define i32 @ucm_countChars(ptr noundef readonly captures(none) %0, ptr noundef readonly captures(none) %1, i32 noundef %2) local_unnamed_addr #7 {
  %4 = getelementptr inbounds nuw i8, ptr %0, i64 132096
  %5 = load i32, ptr %4, align 4, !tbaa !3
  %6 = icmp eq i32 %5, 0
  br i1 %6, label %7, label %10

7:                                                ; preds = %3
  %8 = load ptr, ptr @stderr, align 8, !tbaa !8
  %9 = tail call i64 @fwrite(ptr nonnull @.str.46, i64 42, i64 1, ptr %8) #19
  br label %.thread75

10:                                               ; preds = %3
  %11 = icmp eq i32 %2, 2
  br i1 %11, label %.thread, label %15

.thread:                                          ; preds = %10
  %12 = getelementptr inbounds nuw i8, ptr %0, i64 132113
  %13 = load i8, ptr %12, align 1, !tbaa !24
  %14 = icmp eq i8 %13, 12
  %spec.select = zext i1 %14 to i64
  br label %.lr.ph.preheader

15:                                               ; preds = %10
  %16 = icmp sgt i32 %2, 0
  br i1 %16, label %.lr.ph.preheader, label %.thread75

.lr.ph.preheader:                                 ; preds = %.thread, %15
  %.057 = phi i64 [ %spec.select, %.thread ], [ 0, %15 ]
  %wide.trip.count = zext nneg i32 %2 to i64
  br label %.lr.ph.outer

.lr.ph.outer:                                     ; preds = %.thread62, %.lr.ph.preheader
  %indvars.iv.ph = phi i64 [ %indvars.iv.next66, %.thread62 ], [ 0, %.lr.ph.preheader ]
  %.150.ph = phi i64 [ %45, %.thread62 ], [ %.057, %.lr.ph.preheader ]
  %.02649.ph = phi i32 [ %42, %.thread62 ], [ 0, %.lr.ph.preheader ]
  br label %.lr.ph

.lr.ph:                                           ; preds = %.lr.ph.outer, %37
  %indvars.iv = phi i64 [ %indvars.iv.next, %37 ], [ %indvars.iv.ph, %.lr.ph.outer ]
  %.150 = phi i64 [ %39, %37 ], [ %.150.ph, %.lr.ph.outer ]
  %.03047 = phi i32 [ %41, %37 ], [ 0, %.lr.ph.outer ]
  %17 = and i64 %.150, 255
  %18 = getelementptr inbounds nuw i8, ptr %1, i64 %indvars.iv
  %19 = load i8, ptr %18, align 1, !tbaa !14
  %20 = zext i8 %19 to i64
  %21 = getelementptr inbounds nuw [128 x [256 x i32]], ptr %0, i64 0, i64 %17, i64 %20
  %22 = load i32, ptr %21, align 4, !tbaa !11
  %23 = icmp sgt i32 %22, -1
  br i1 %23, label %37, label %24

24:                                               ; preds = %.lr.ph
  %25 = lshr i32 %22, 20
  %26 = and i32 %25, 15
  switch i32 %26, label %33 [
    i32 7, label %27
    i32 8, label %30
    i32 6, label %.thread62
    i32 2, label %.thread62
    i32 0, label %.thread62
    i32 3, label %.thread62
    i32 1, label %.thread62
    i32 4, label %.thread62
    i32 5, label %.thread62
  ]

27:                                               ; preds = %24
  %28 = load ptr, ptr @stderr, align 8, !tbaa !8
  %29 = tail call i64 @fwrite(ptr nonnull @.str.47, i64 47, i64 1, ptr %28) #19
  br label %.thread75

30:                                               ; preds = %24
  %31 = load ptr, ptr @stderr, align 8, !tbaa !8
  %32 = tail call i64 @fwrite(ptr nonnull @.str.48, i64 51, i64 1, ptr %31) #19
  br label %.thread75

33:                                               ; preds = %24
  %34 = load ptr, ptr @stderr, align 8, !tbaa !8
  %35 = sext i32 %22 to i64
  %36 = tail call i32 (ptr, ptr, ...) @fprintf(ptr noundef %34, ptr noundef nonnull @.str.49, i64 noundef %35) #15
  br label %.thread75

37:                                               ; preds = %.lr.ph
  %38 = lshr i32 %22, 24
  %39 = zext nneg i32 %38 to i64
  %40 = and i32 %22, 16777215
  %41 = add i32 %40, %.03047
  %indvars.iv.next = add nuw nsw i64 %indvars.iv, 1
  %exitcond.not = icmp eq i64 %indvars.iv.next, %wide.trip.count
  br i1 %exitcond.not, label %._crit_edge, label %.lr.ph, !llvm.loop !63

.thread62:                                        ; preds = %24, %24, %24, %24, %24, %24, %24
  %42 = add nuw nsw i32 %.02649.ph, 1
  %43 = lshr i32 %22, 24
  %44 = and i32 %43, 127
  %45 = zext nneg i32 %44 to i64
  %indvars.iv.next66 = add nuw nsw i64 %indvars.iv, 1
  %exitcond.not67 = icmp eq i64 %indvars.iv.next66, %wide.trip.count
  br i1 %exitcond.not67, label %._crit_edge.thread71, label %.lr.ph.outer, !llvm.loop !63

._crit_edge:                                      ; preds = %37
  %46 = icmp eq i32 %41, 0
  br i1 %46, label %._crit_edge.thread71, label %47

47:                                               ; preds = %._crit_edge
  %48 = load ptr, ptr @stderr, align 8, !tbaa !8
  %49 = tail call i32 (ptr, ptr, ...) @fprintf(ptr noundef %48, ptr noundef nonnull @.str.50, i32 noundef %38) #15
  br label %.thread75

._crit_edge.thread71:                             ; preds = %.thread62, %._crit_edge
  %.026.lcssa61 = phi i32 [ %.02649.ph, %._crit_edge ], [ %42, %.thread62 ]
  %50 = icmp sgt i32 %.026.lcssa61, 1
  br i1 %50, label %51, label %.thread75

51:                                               ; preds = %._crit_edge.thread71
  %52 = getelementptr inbounds nuw i8, ptr %0, i64 132113
  %53 = load i8, ptr %52, align 1, !tbaa !24
  %54 = icmp ne i8 %53, 12
  %55 = shl nuw nsw i32 %.026.lcssa61, 1
  %.not35 = icmp eq i32 %2, %55
  %or.cond = select i1 %54, i1 true, i1 %.not35
  br i1 %or.cond, label %.thread75, label %56

56:                                               ; preds = %51
  %57 = load ptr, ptr @stderr, align 8, !tbaa !8
  %58 = tail call i32 (ptr, ptr, ...) @fprintf(ptr noundef %57, ptr noundef nonnull @.str.51, i32 noundef %.026.lcssa61) #15
  br label %.thread75

.thread75:                                        ; preds = %15, %._crit_edge.thread71, %51, %56, %47, %33, %30, %27, %7
  %.028 = phi i32 [ -1, %7 ], [ -1, %33 ], [ -1, %30 ], [ -1, %27 ], [ -1, %47 ], [ -1, %56 ], [ %.026.lcssa61, %51 ], [ %.026.lcssa61, %._crit_edge.thread71 ], [ 0, %15 ]
  ret i32 %.028
}